target datalayout = "e-m:e-p270:32:32-p271:32:32-p272:64:64-i64:64-i128:128-f80:128-n8:16:32:64-S128"
target triple = "x86_64-pc-linux-gnu"

@.str.9 = private unnamed_addr constant [31 x i8] c"../openssl/test/fake_rsaprov.c\00", align 1
@.str.19 = private unnamed_addr constant [7 x i8] c"sigctx\00", align 1

; Function Attrs: nounwind uwtable
define internal i32 @fake_rsa_dgstsgnvfy_update(ptr noundef %0, ptr noundef %1, i64 noundef %2) #0 {
  %4 = alloca i32, align 4
  %5 = alloca ptr, align 8
  %6 = alloca ptr, align 8
  %7 = alloca i64, align 8
  %8 = alloca ptr, align 8
  %9 = alloca i32, align 4
  store ptr %0, ptr %5, align 8, !tbaa !19
  store ptr %1, ptr %6, align 8, !tbaa !22
  store i64 %2, ptr %7, align 8, !tbaa !33
  call void @llvm.lifetime.start.p0(i64 8, ptr %8) #6
  %10 = load ptr, ptr %5, align 8, !tbaa !19
  store ptr %10, ptr %8, align 8, !tbaa !22
  %11 = load ptr, ptr %8, align 8, !tbaa !22
  %12 = call i32 @test_ptr(ptr noundef @.str.9, i32 noundef 425, ptr noundef @.str.19, ptr noundef %11)
  %13 = icmp ne i32 %12, 0
  br i1 %13, label %15, label %14

14:                                               ; preds = %3
  store i32 0, ptr %4, align 4
  store i32 1, ptr %9, align 4
  br label %33

15:                                               ; preds = %3
  %16 = load ptr, ptr %8, align 8, !tbaa !22
  %17 = load i8, ptr %16, align 1, !tbaa !30
  %18 = zext i8 %17 to i32
  %19 = icmp eq i32 %18, 0
  br i1 %19, label %26, label %20

20:                                               ; preds = %15
  %21 = load ptr, ptr %8, align 8, !tbaa !22
  %22 = load i8, ptr %21, align 1, !tbaa !30
  %23 = zext i8 %22 to i32
  %24 = and i32 %23, 8
  %25 = icmp ne i32 %24, 0
  br i1 %25, label %26, label %27

26:                                               ; preds = %20, %15
  store i32 0, ptr %4, align 4
  store i32 1, ptr %9, align 4
  br label %33

27:                                               ; preds = %20
  %28 = load ptr, ptr %8, align 8, !tbaa !22
  %29 = load i8, ptr %28, align 1, !tbaa !30
  %30 = zext i8 %29 to i32
  %31 = or i32 %30, 4
  %32 = trunc i32 %31 to i8
  store i8 %32, ptr %28, align 1, !tbaa !30
  store i32 1, ptr %4, align 4
  store i32 1, ptr %9, align 4
  br label %33

33:                                               ; preds = %27, %26, %14
  call void @llvm.lifetime.end.p0(i64 8, ptr %8) #6
  %34 = load i32, ptr %4, align 4
  ret i32 %34
}