; Function Attrs: nounwind uwtable
define internal range(i32 0, 2) i32 @fake_rsa_dgstsgnvfy_update(ptr noundef %0, ptr readnone captures(none) %1, i64 %2) #1 {
  %4 = tail call i32 @test_ptr(ptr noundef nonnull @.str.9, i32 noundef 425, ptr noundef nonnull @.str.19, ptr noundef %0) #12
  %.not = icmp eq i32 %4, 0
  br i1 %.not, label %11, label %5

5:                                                ; preds = %3
  %6 = load i8, ptr %0, align 1, !tbaa !14
  %7 = icmp ne i8 %6, 0
  %8 = and i8 %6, 8
  %.not6 = icmp eq i8 %8, 0
  %or.cond = and i1 %7, %.not6
  br i1 %or.cond, label %9, label %11

9:                                                ; preds = %5
  %10 = or i8 %6, 4
  store i8 %10, ptr %0, align 1, !tbaa !14
  br label %11

11:                                               ; preds = %5, %3, %9
  %.0 = phi i32 [ 1, %9 ], [ 0, %3 ], [ 0, %5 ]
  ret i32 %.0
}